; ModuleID = '45/984.c'
source_filename = "45/984.c"
target datalayout = "e-m:e-p270:32:32-p271:32:32-p272:64:64-i64:64-f80:128-n8:16:32:64-S128"
target triple = "x86_64-pc-linux-gnu"

@.str = private unnamed_addr constant [3 x i8] c"%s\00", align 1
@.str.1 = private unnamed_addr constant [3 x i8] c"%d\00", align 1

; Function Attrs: noinline nounwind uwtable
define dso_local i32 @main() #0 {
  %1 = alloca i32, align 4
  %2 = alloca [2 x [51 x i8]], align 16
  %3 = alloca i32, align 4
  %4 = alloca i32, align 4
  %5 = alloca i32, align 4
  store i32 0, i32* %1, align 4
  store i32 0, i32* %5, align 4
  br label %6

6:                                                ; preds = %15, %0
  %7 = load i32, i32* %5, align 4
  %8 = icmp slt i32 %7, 2
  br i1 %8, label %9, label %18

9:                                                ; preds = %6
  %10 = load i32, i32* %5, align 4
  %11 = sext i32 %10 to i64
  %12 = getelementptr inbounds [2 x [51 x i8]], [2 x [51 x i8]]* %2, i64 0, i64 %11
  %13 = getelementptr inbounds [51 x i8], [51 x i8]* %12, i64 0, i64 0
  %14 = call i32 (i8*, ...) @__isoc99_scanf(i8* getelementptr inbounds ([3 x i8], [3 x i8]* @.str, i64 0, i64 0), i8* %13)
  br label %15

15:                                               ; preds = %9
  %16 = load i32, i32* %5, align 4
  %17 = add nsw i32 %16, 1
  store i32 %17, i32* %5, align 4
  br label %6

18:                                               ; preds = %6
  %19 = getelementptr inbounds [2 x [51 x i8]], [2 x [51 x i8]]* %2, i64 0, i64 1
  %20 = getelementptr inbounds [51 x i8], [51 x i8]* %19, i64 0, i64 0
  %21 = call i64 @strlen(i8* %20) #3
  %22 = trunc i64 %21 to i32
  store i32 %22, i32* %3, align 4
  %23 = getelementptr inbounds [2 x [51 x i8]], [2 x [51 x i8]]* %2, i64 0, i64 0
  %24 = getelementptr inbounds [51 x i8], [51 x i8]* %23, i64 0, i64 0
  %25 = call i64 @strlen(i8* %24) #3
  %26 = trunc i64 %25 to i32
  store i32 %26, i32* %4, align 4
  store i32 0, i32* %5, align 4
  br label %27

27:                                               ; preds = %58, %18
  %28 = load i32, i32* %5, align 4
  %29 = load i32, i32* %3, align 4
  %30 = icmp slt i32 %28, %29
  br i1 %30, label %31, label %61

31:                                               ; preds = %27
  %32 = getelementptr inbounds [2 x [51 x i8]], [2 x [51 x i8]]* %2, i64 0, i64 1
  %33 = load i32, i32* %5, align 4
  %34 = sext i32 %33 to i64
  %35 = getelementptr inbounds [51 x i8], [51 x i8]* %32, i64 0, i64 %34
  %36 = load i8, i8* %35, align 1
  %37 = sext i8 %36 to i32
  %38 = getelementptr inbounds [2 x [51 x i8]], [2 x [51 x i8]]* %2, i64 0, i64 0
  %39 = getelementptr inbounds [51 x i8], [51 x i8]* %38, i64 0, i64 0
  %40 = load i8, i8* %39, align 16
  %41 = sext i8 %40 to i32
  %42 = icmp eq i32 %37, %41
  br i1 %42, label %43, label %57

43:                                               ; preds = %31
  %44 = getelementptr inbounds [2 x [51 x i8]], [2 x [51 x i8]]* %2, i64 0, i64 1
  %45 = load i32, i32* %5, align 4
  %46 = add nsw i32 %45, 1
  %47 = sext i32 %46 to i64
  %48 = getelementptr inbounds [51 x i8], [51 x i8]* %44, i64 0, i64 %47
  %49 = load i8, i8* %48, align 1
  %50 = sext i8 %49 to i32
  %51 = getelementptr inbounds [2 x [51 x i8]], [2 x [51 x i8]]* %2, i64 0, i64 0
  %52 = getelementptr inbounds [51 x i8], [51 x i8]* %51, i64 0, i64 1
  %53 = load i8, i8* %52, align 1
  %54 = sext i8 %53 to i32
  %55 = icmp eq i32 %50, %54
  br i1 %55, label %56, label %57

56:                                               ; preds = %43
  br label %61

57:                                               ; preds = %43, %31
  br label %58

58:                                               ; preds = %57
  %59 = load i32, i32* %5, align 4
  %60 = add nsw i32 %59, 1
  store i32 %60, i32* %5, align 4
  br label %27

61:                                               ; preds = %56, %27
  %62 = load i32, i32* %5, align 4
  %63 = call i32 (i8*, ...) @printf(i8* getelementptr inbounds ([3 x i8], [3 x i8]* @.str.1, i64 0, i64 0), i32 %62)
  ret i32 0
}

declare dso_local i32 @__isoc99_scanf(i8*, ...) #1

; Function Attrs: nounwind readonly
declare dso_local i64 @strlen(i8*) #2

declare dso_local i32 @printf(i8*, ...) #1


!llvm.module.flags = !{!0}
!llvm.ident = !{!1}

!0 = !{i32 1, !"wchar_size", i32 4}
!1 = !{!"clang version 10.0.0-4ubuntu1 "}
