; ModuleID = 'source-C-CXX/44/984.c'
source_filename = "source-C-CXX/44/984.c"
target datalayout = "e-m:e-p270:32:32-p271:32:32-p272:64:64-i64:64-f80:128-n8:16:32:64-S128"
target triple = "x86_64-pc-linux-gnu"

@.str = private unnamed_addr constant [3 x i8] c"%s\00", align 1
@.str.1 = private unnamed_addr constant [3 x i8] c"%d\00", align 1

; Function Attrs: nofree nounwind sspstrong uwtable
define dso_local i32 @main() local_unnamed_addr #0 {
  %1 = alloca [2 x [51 x i8]], align 16
  %2 = getelementptr inbounds [2 x [51 x i8]], [2 x [51 x i8]]* %1, i64 0, i64 0, i64 0
  call void @llvm.lifetime.start.p0i8(i64 102, i8* nonnull %2) #4
  %3 = call i32 (i8*, ...) @__isoc99_scanf(i8* getelementptr inbounds ([3 x i8], [3 x i8]* @.str, i64 0, i64 0), i8* nonnull %2)
  %4 = getelementptr inbounds [2 x [51 x i8]], [2 x [51 x i8]]* %1, i64 0, i64 1, i64 0
  %5 = call i32 (i8*, ...) @__isoc99_scanf(i8* getelementptr inbounds ([3 x i8], [3 x i8]* @.str, i64 0, i64 0), i8* nonnull %4)
  %6 = call i64 @strlen(i8* noundef nonnull %4) #5
  %7 = trunc i64 %6 to i32
  %8 = load i8, i8* %2, align 16
  %9 = getelementptr inbounds [2 x [51 x i8]], [2 x [51 x i8]]* %1, i64 0, i64 0, i64 1
  %10 = load i8, i8* %9, align 1
  %11 = icmp sgt i32 %7, 0
  br i1 %11, label %12, label %28

12:                                               ; preds = %0
  %13 = and i64 %6, 4294967295
  br label %14

14:                                               ; preds = %12, %24
  %15 = phi i64 [ 0, %12 ], [ %19, %24 ]
  %16 = getelementptr inbounds [2 x [51 x i8]], [2 x [51 x i8]]* %1, i64 0, i64 1, i64 %15
  %17 = load i8, i8* %16, align 1, !tbaa !5
  %18 = icmp eq i8 %17, %8
  %19 = add nuw nsw i64 %15, 1
  br i1 %18, label %20, label %24

20:                                               ; preds = %14
  %21 = getelementptr inbounds [2 x [51 x i8]], [2 x [51 x i8]]* %1, i64 0, i64 1, i64 %19
  %22 = load i8, i8* %21, align 1, !tbaa !5
  %23 = icmp eq i8 %22, %10
  br i1 %23, label %26, label %24

24:                                               ; preds = %14, %20
  %25 = icmp eq i64 %19, %13
  br i1 %25, label %28, label %14, !llvm.loop !8

26:                                               ; preds = %20
  %27 = trunc i64 %15 to i32
  br label %28

28:                                               ; preds = %24, %26, %0
  %29 = phi i32 [ 0, %0 ], [ %27, %26 ], [ %7, %24 ]
  %30 = call i32 (i8*, ...) @printf(i8* nonnull dereferenceable(1) getelementptr inbounds ([3 x i8], [3 x i8]* @.str.1, i64 0, i64 0), i32 %29)
  call void @llvm.lifetime.end.p0i8(i64 102, i8* nonnull %2) #4
  ret i32 0
}

; Function Attrs: argmemonly mustprogress nofree nosync nounwind willreturn
declare void @llvm.lifetime.start.p0i8(i64 immarg, i8* nocapture) #1

; Function Attrs: nofree nounwind
declare noundef i32 @__isoc99_scanf(i8* nocapture noundef readonly, ...) local_unnamed_addr #2

; Function Attrs: argmemonly mustprogress nofree nounwind readonly willreturn
declare i64 @strlen(i8* nocapture) local_unnamed_addr #3

; Function Attrs: nofree nounwind
declare noundef i32 @printf(i8* nocapture noundef readonly, ...) local_unnamed_addr #2

; Function Attrs: argmemonly mustprogress nofree nosync nounwind willreturn
declare void @llvm.lifetime.end.p0i8(i64 immarg, i8* nocapture) #1


!llvm.module.flags = !{!0, !1, !2, !3}
!llvm.ident = !{!4}

!0 = !{i32 1, !"wchar_size", i32 4}
!1 = !{i32 7, !"PIC Level", i32 2}
!2 = !{i32 7, !"PIE Level", i32 2}
!3 = !{i32 7, !"uwtable", i32 1}
!4 = !{!"clang version 13.0.0"}
!5 = !{!6, !6, i64 0}
!6 = !{!"omnipotent char", !7, i64 0}
!7 = !{!"Simple C/C++ TBAA"}
!8 = distinct !{!8, !9}
!9 = !{!"llvm.loop.mustprogress"}
